Certificate:
    Data:
        Version: 3 (0x2)
        Serial Number: 5 (0x5)
    Signature Algorithm: sha256WithRSAEncryption
        Issuer: C=US, ST=Malopolska, L=Krakow, CN=Inn Fake CA
        Validity
            Not Before: May  9 08:05:37 2022 GMT
            Not After : Jun 10 08:05:37 2023 GMT
        Subject: C=PL, ST=Malopolska, L=Krakow, CN=Inn
        Subject Public Key Info:
            Public Key Algorithm: rsaEncryption
                Public-Key: (2048 bit)
                Modulus:
                    00:c3:46:38:e4:66:dc:64:bd:f4:91:81:f0:63:11:
                    3f:92:e3:02:7f:9e:fa:3c:16:e3:c3:b2:b3:1d:29:
                    7c:75:3c:c4:ab:92:a2:5d:12:96:03:39:59:a1:a4:
                    58:d5:db:6c:49:8e:c0:ad:a2:b2:1b:ec:12:75:8b:
                    16:d0:ef:64:1b:50:29:a2:7f:e2:0f:72:95:4c:79:
                    1f:b7:cd:b3:a8:42:6c:16:8c:9c:4f:4d:21:4f:b3:
                    04:53:00:82:ab:00:03:b5:c7:1c:cd:ac:bc:87:94:
                    ed:53:75:43:80:d3:24:f1:0b:e2:07:32:33:35:70:
                    5c:47:0d:a6:3e:d6:32:24:fb:a5:24:5f:33:25:48:
                    68:22:18:cc:ab:c1:ff:10:a9:83:72:2b:5e:bb:49:
                    58:b6:98:d6:71:40:2c:03:c7:fd:b6:42:64:7c:59:
                    16:33:3e:99:d2:de:bb:5a:5e:1f:e4:3e:00:fd:68:
                    22:c8:4e:26:8c:c2:14:f0:fa:00:93:35:e3:d4:f9:
                    ef:f4:0b:56:fd:65:b3:0f:d2:8c:0c:e1:70:5b:ad:
                    fb:db:f6:71:e9:fc:2c:cd:b0:e2:78:5a:b4:d1:ab:
                    bd:78:ef:60:04:91:e1:a0:17:de:c4:72:cf:63:70:
                    04:4c:b4:95:68:30:ec:da:a4:8a:70:6e:6d:df:9b:
                    81:61
                Exponent: 65537 (0x10001)
        X509v3 extensions:
            X509v3 Subject Key Identifier: 
                A5:0D:D3:D0:51:E5:80:9A:D8:4A:08:BF:39:BA:43:82:51:32:B7:6D
            X509v3 Authority Key Identifier: 
                DirName:/C=US/ST=Malopolska/L=Krakow/CN=Inn Fake CA
                serial:86:C4:E7:1C:8B:1A:E9:9D

            X509v3 Basic Constraints: 
                CA:FALSE
            X509v3 Key Usage: 
                Digital Signature, Key Encipherment
            X509v3 Subject Alternative Name: 
                DNS:localhost, DNS:*.example.com, DNS:www.example.com, DNS:web.mchat.com, DNS:*.mchat.com, DNS:github.com, DNS:www.github.com, IP Address:127.0.0.1
            Netscape Comment: 
                Fake Dev-Only Certificate
    Signature Algorithm: sha256WithRSAEncryption
         9e:1b:e6:7c:1d:6b:b9:aa:16:6c:4e:a6:fd:1f:90:90:64:4f:
         76:84:e4:b9:52:9a:86:7d:e7:b5:44:9f:77:84:36:64:4d:7d:
         e2:58:e4:b7:68:14:d8:3a:de:60:14:c0:0b:06:e4:db:6b:5e:
         36:b8:18:86:60:35:e2:ce:f6:fa:f7:c7:f3:db:ff:66:b4:74:
         f3:0c:fa:ae:d9:13:6c:dc:57:22:e0:cc:99:8b:0f:db:97:3d:
         75:51:ca:2a:f9:b5:db:c7:31:d1:45:64:4f:bc:e3:39:a4:b5:
         3f:df:a7:c2:ef:a4:8c:d8:b2:f5:53:d8:c2:48:76:f2:eb:6f:
         c2:5f:08:3e:f3:14:56:4b:a4:0c:ee:17:be:7d:15:ff:64:18:
         66:58:59:b0:1d:6b:ef:fa:ca:15:16:42:b1:55:22:df:7e:15:
         26:9b:4e:4c:c0:77:19:66:69:ce:02:96:14:04:73:fc:40:97:
         83:ea:39:c2:56:a6:ff:09:09:7f:1a:27:82:07:5e:61:c1:7a:
         91:85:82:be:58:df:05:06:18:be:a2:4a:43:98:4e:80:12:5b:
         82:b9:56:9b:5e:bc:31:d0:99:4f:e3:9a:98:f0:d8:98:89:2a:
         77:0b:fd:a0:aa:50:20:ab:12:10:49:c3:c0:8c:77:af:f3:db:
         c6:b8:63:d1
-----BEGIN CERTIFICATE-----
MIIERTCCAy2gAwIBAgIBBTANBgkqhkiG9w0BAQsFADBJMQswCQYDVQQGEwJVUzET
MBEGA1UECAwKTWFsb3BvbHNrYTEPMA0GA1UEBwwGS3Jha293MRQwEgYDVQQDDAtJ
bm4gRmFrZSBDQTAeFw0yMjA1MDkwODA1MzdaFw0yMzA2MTAwODA1MzdaMEExCzAJ
BgNVBAYTAlBMMRMwEQYDVQQIDApNYWxvcG9sc2thMQ8wDQYDVQQHDAZLcmFrb3cx
DDAKBgNVBAMMA0lubjCCASIwDQYJKoZIhvcNAQEBBQADggEPADCCAQoCggEBAMNG
OORm3GS99JGB8GMRP5LjAn+e+jwW48Oysx0pfHU8xKuSol0SlgM5WaGkWNXbbEmO
wK2ishvsEnWLFtDvZBtQKaJ/4g9ylUx5H7fNs6hCbBaMnE9NIU+zBFMAgqsAA7XH
HM2svIeU7VN1Q4DTJPEL4gcyMzVwXEcNpj7WMiT7pSRfMyVIaCIYzKvB/xCpg3Ir
XrtJWLaY1nFALAPH/bZCZHxZFjM+mdLeu1peH+Q+AP1oIshOJozCFPD6AJM149T5
7/QLVv1lsw/SjAzhcFut+9v2cen8LM2w4nhatNGrvXjvYASR4aAX3sRyz2NwBEy0
lWgw7NqkinBubd+bgWECAwEAAaOCAT4wggE6MB0GA1UdDgQWBBSlDdPQUeWAmthK
CL85ukOCUTK3bTBjBgNVHSMEXDBaoU2kSzBJMQswCQYDVQQGEwJVUzETMBEGA1UE
CAwKTWFsb3BvbHNrYTEPMA0GA1UEBwwGS3Jha293MRQwEgYDVQQDDAtJbm4gRmFr
ZSBDQYIJAIbE5xyLGumdMAkGA1UdEwQCMAAwCwYDVR0PBAQDAgWgMHIGA1UdEQRr
MGmCCWxvY2FsaG9zdIINKi5leGFtcGxlLmNvbYIPd3d3LmV4YW1wbGUuY29tgg13
ZWIubWNoYXQuY29tggsqLm1jaGF0LmNvbYIKZ2l0aHViLmNvbYIOd3d3LmdpdGh1
Yi5jb22HBH8AAAEwKAYJYIZIAYb4QgENBBsWGUZha2UgRGV2LU9ubHkgQ2VydGlm
aWNhdGUwDQYJKoZIhvcNAQELBQADggEBAJ4b5nwda7mqFmxOpv0fkJBkT3aE5LlS
moZ957VEn3eENmRNfeJY5LdoFNg63mAUwAsG5NtrXja4GIZgNeLO9vr3x/Pb/2a0
dPMM+q7ZE2zcVyLgzJmLD9uXPXVRyir5tdvHMdFFZE+84zmktT/fp8LvpIzYsvVT
2MJIdvLrb8JfCD7zFFZLpAzuF759Ff9kGGZYWbAda+/6yhUWQrFVIt9+FSabTkzA
dxlmac4ClhQEc/xAl4PqOcJWpv8JCX8aJ4IHXmHBepGFgr5Y3wUGGL6iSkOYToAS
W4K5VptevDHQmU/jmpjw2JiJKncL/aCqUCCrEhBJw8CMd6/z28a4Y9E=
-----END CERTIFICATE-----
